; Function Attrs: mustprogress nofree norecurse nosync nounwind willreturn memory(write, argmem: readwrite, inaccessiblemem: none) uwtable
define noundef i32 @ASN1_put_eoc(ptr noundef captures(none) %0) local_unnamed_addr #4 {
  %2 = load ptr, ptr %0, align 8, !tbaa !3
  %3 = getelementptr inbounds nuw i8, ptr %2, i64 1
  store i8 0, ptr %2, align 1, !tbaa !8
  %4 = getelementptr inbounds nuw i8, ptr %2, i64 2
  store i8 0, ptr %3, align 1, !tbaa !8
  store ptr %4, ptr %0, align 8, !tbaa !3
  ret i32 2
}